(dp0
S'algo_meta'
p1
(dp2
S'wsss_error'
p3
S'476.100523092'
p4
sS'k'
p5
I83
sS'iteration'
p6
I100
ssS'clustere_news'
p7
(lp8
(dp9
S'url'
p10
Vhttps://www.cbsnews.com/news/billy-bush-donald-trump-voice-access-hollywood-tape/
p11
sS'cluster_id'
p12
I46
sS'summary'
p13
VBilly Bush confirms it was Trump on infamous tapeBush writes of the tape's validity amid reports tha
p14
sa(dp15
S'url'
p16
Vhttps://www.cbsnews.com/news/commentary-the-anti-trump-coalition-isnt-happening/
p17
sS'cluster_id'
p18
I13
sS'summary'
p19
VCommentary: The anti-Trump coalition isn't happeningWhy a bipartisan "Popular Front" against the pre
p20
sa(dp21
g16
Vhttps://www.cbsnews.com/news/james-levine-ny-met-opera-suspends-relationship-sexual-misconduct-investigation/
p22
sg18
I53
sg19
VMet Opera suspends relationship with conductorJames Levine faces pending investigation for sexual mi
p23
sa(dp24
S'url'
p25
Vhttps://www.cbsnews.com/news/a-guided-tour-of-60-minutes/
p26
sS'cluster_id'
p27
I71
sS'summary'
p28
VA guided tour of "60 Minutes"Executive producer Jeff Fager gives viewers a personal tour, popping in
p29
sa(dp30
g25
Vhttps://www.cbsnews.com/news/rosalie-avila-teenager-suicide-attempt-yucaipa-california-bullying/
p31
sg27
I81
sg28
V"They told me I was ugly": Girl attempts suicide, put on life supportLOMA LINDA, Calif.  A Yucaipa f
p32
sa(dp33
g25
Vhttps://www.cbsnews.com/news/texas-teen-ashlee-hattermann-safe-mexico-man-known-messaging-apps/
p34
sg27
I15
sg28
VYoung Texas teen found safe in MexicoThere was relief on Sunday for a Texas couple who said their 13
p35
sa(dp36
g25
Vhttps://www.cbsnews.com/pictures/50-years-of-60-minutes-in-pictures/
p37
sg27
I15
sg28
V50 years of "60 Minutes"Images of the moments and people who have shaped 60 Minutes for 50 seasons
p38
sa(dp39
S'url'
p40
Vhttps://www.cbsnews.com/news/queens-new-york-city-charged-murder-car-knife-parking-dispute-xs-hookah-lounge/
p41
sS'cluster_id'
p42
I15
sS'summary'
p43
VMan charged with murder in NYC knife, car attackNEW YORK -- Police in New York have arrested and cha
p44
sa(dp45
g40
Vhttps://www.cbsnews.com/news/john-dowd-trump-tweet-michael-flynn-fbi-report/
p46
sg42
I73
sg43
VTrump attorney says he wrote president's tweet on Flynn lying to FBILast\u000a          Updated Dec 3, 20
p47
sa(dp48
g40
Vhttps://www.cbsnews.com/news/joseph-hayden-boston-sexual-assault-molestation-riverside-california/
p49
sg42
I15
sg43
VTeenager in California admits to molesting 50 children, police sayRIVERSIDE, Calif. -- A teenager wh
p50
sa(dp51
g40
Vhttps://www.cbsnews.com/news/net-neutrality-rollback-could-create-a-tiered-internet/
p52
sg42
I29
sg43
VHow a net neutrality rollback could create a tiered internetThe effort to maintain net neutrality is
p53
sa(dp54
g40
Vhttps://www.cbsnews.com/news/another-type-of-economic-inequality-the-red-blue-state-divide/
p55
sg42
I36
sg43
VDespite booming economy, red-state workers laggingThe surprising results of the 2016 election have b
p56
sa(dp57
g40
Vhttps://www.cbsnews.com/news/trump-says-he-never-asked-comey-to-stop-investigating-michael-flynn/
p58
sg42
I16
sg43
VTrump says he never asked Comey to stop investigating FlynnLast\u000a          Updated Dec 3, 2017 9:10 A
p59
sa(dp60
g40
Vhttps://www.cbsnews.com/news/cvs-pushes-into-insurance-aetna-bid/
p61
sg42
I11
sg43
VCVS pushes into insurance with $69 billion Aetna bidLast\u000a          Updated Dec 3, 2017 11:16 PM EST 
p62
sa(dp63
g40
Vhttps://www.cbsnews.com/news/were-going-to-find-some-really-stinky-stuff-in-tax-bill-sen-angus-king-predicts/
p64
sg42
I52
sg43
V"We're going to find some really stinky stuff" in tax bill: Sen. KingSen. Angus King, I-Maine, said 
p65
sa(dp66
S'url'
p67
Vhttps://www.cbsnews.com/pictures/britain-line-of-succession/
p68
sS'cluster_id'
p69
I15
sS'summary'
p70
VBritain's line of successionA look at who is next in line for the throne after Queen Elizabeth II
p71
sa(dp72
g67
Vhttps://www.cbsnews.com/news/hamilton-high-school-chandler-arizona-police-say-official-didnt-report-abuse/
p73
sg69
I72
sg70
VPolice: Officials at Arizona high school didn't report abusePHOENIX -- Police have recommended charg
p74
sa(dp75
g67
Vhttps://www.cbsnews.com/news/potsdam-germany-christmas-market-bomb-scare-package-blackmail-dhl/
p76
sg69
I12
sg70
VAlleged blackmail plot sparks Christmas market bomb scareBERLIN -- A suspicious package containing n
p77
sa(dp78
g67
Vhttps://www.cbsnews.com/news/ohio-plane-crash-pilot-killed-portage-county/
p79
sg69
I15
sg70
VPilot killed in small plane crash in Ohio, officials sayA single-engine airplane crashed into a home
p80
sa(dp81
g67
Vhttps://www.cbsnews.com/news/sen-lindsey-graham-says-new-north-korea-tech-advances-make-preemptive-war-more-likely/
p82
sg69
I28
sg70
VGraham says N. Korea tech advances make pre-emptive war "more likely"Sen. Lindsey Graham, R-South Ca
p83
sa(dp84
g67
Vhttps://www.cbsnews.com/news/robert-paul-alexander-edwards-arrested-drawing-homework/
p85
sg69
I82
sg70
VMan arrested for reportedly drawing on child's homework: policePORT ST. JOE, Fla. -- A 33-year-old m
p86
sa(dp87
g67
Vhttps://www.cbsnews.com/pictures/white-house-christmas-2017/
p88
sg69
I15
sg70
VWhite House ChristmasGlittering decorations and a 19.5-foot tree set the mood for Christmas at the W
p89
sa(dp90
g67
Vhttps://www.cbsnews.com/news/nra-may-see-major-legislative-win-with-concealed-carry-bill/
p91
sg69
I9
sg70
VNRA may see major legislative win with concealed carry billThis week the House is expected to pass  
p92
sa(dp93
g67
Vhttps://www.cbsnews.com/news/brandon-clark-suspect-gunman-bakersfield-heart-hospital/
p94
sg69
I15
sg70
VPolice identify suspect who opened fire at California hospitalBAKERSFIELD, Calif. -- California auth
p95
sa(dp96
g67
Vhttps://www.cbsnews.com/news/kushner-says-trump-is-still-undecided-on-israels-capital-as-deadline-looms/
p97
sg69
I15
sg70
VJared Kushner says Trump still undecided on Israel's capitalLast\u000a          Updated Dec 3, 2017 2:21 
p98
sa(dp99
g67
Vhttps://www.cbsnews.com/videos/thousands-protest-trump-administrations-plan-to-shrink-2-national-monuments/
p100
sg69
I15
sg70
VThousands protest Trump admin.'s plan to shrink 2 national monuments
p101
sa(dp102
g67
Vhttps://www.cbsnews.com/pictures/kennedy-center-honors-2017-pictures/
p103
sg69
I69
sg70
VKennedy Center Honors 2017This year's honorees are: dancer and choreographer Carmen de Lavallade; si
p104
sa(dp105
g67
Vhttps://www.cbsnews.com/news/pontiac-silverdome-still-stands-after-demolition-attempt/
p106
sg69
I15
sg70
VPontiac Silverdome still stands after demolition attemptPONTIAC -- The explosives went off but the d
p107
sa(dp108
g67
Vhttps://www.cbsnews.com/news/garrison-keillor-successor-chris-thile-misconduct-allegation-heartbreaking/
p109
sg69
I15
sg70
VGarrison Keillor's successor: Misconduct allegation "heartbreaking"NEW YORK -- The man who replaced 
p110
sa(dp111
g67
Vhttps://www.cbsnews.com/news/full-moon-kicks-off-supermoon-trilogy-including-lunar-eclipse/
p112
sg69
I33
sg70
VFull moon kicks off "supermoon trilogy," including lunar eclipseLast\u000a          Updated Dec 3, 2017 4
p113
sa(dp114
g67
Vhttps://www.cbsnews.com/news/kennedy-center-honors-2017-celebration-donald-trump-not-attending/
p115
sg69
I59
sg70
VKennedy Center Honors celebrates artists, skips political dramaWASHINGTON -- This year's Kennedy Cen
p116
sa(dp117
S'url'
p118
Vhttps://www.cbsnews.com/pictures/most-heavily-muslim-countries-on-earth/
p119
sS'cluster_id'
p120
I15
sS'summary'
p121
VThe most heavily Muslim countries on EarthMuslims make up the world's second-largest religious group
p122
sa(dp123
g118
Vhttps://www.cbsnews.com/news/sen-dianne-feinstein-obstruction-of-justice-case-trump/
p124
sg120
I60
sg121
VFeinstein foresees obstruction of justice case developing against TrumpRanking member on the Senate 
p125
sa(dp126
g118
Vhttps://www.cbsnews.com/news/rob-gronkowski-new-england-patriots-cheap-shot-tredavious-white-buffalo-bills/
p127
sg120
I40
sg121
VGronkowski criticized for cheap shot on Buffalo Bills playerLast\u000a          Updated Dec 3, 2017 6:17 
p128
sa(dp129
g118
Vhttps://www.cbsnews.com/news/garth-brooks-concert-power-outage-new-jersey-prudential-center/
p130
sg120
I15
sg121
VPower outage affects packed arena for Garth Brooks concertNEWARK, N.J. -- A power outage struck the 
p131
sa(dp132
g118
Vhttps://www.cbsnews.com/pictures/crash-course-on-meghan-markle/
p133
sg120
I15
sg121
VCrash course on Meghan MarkleMost know Meghan Markle as an actress on "Suits," but there's a lot mor
p134
sa(dp135
g118
Vhttps://www.cbsnews.com/news/50-years-of-60-minutes/
p136
sg120
I1
sg121
V50 years of "60 Minutes"Steve Kroft, Scott Pelley, Lesley Stahl, Bill Whitaker and more look back at
p137
sa(dp138
g118
Vhttps://www.cbsnews.com/news/alabama-republicans-allegations-against-moore-false-cbs-news-poll/
p139
sg120
I43
sg121
VAlabama Republicans call allegations against Roy Moore falseTurnout will be key, since Moore leads w
p140
sa(dp141
g118
Vhttps://www.cbsnews.com/news/lessons-from-warren-buffett-berkshire-hathaway/
p142
sg120
I50
sg121
VLessons from Warren BuffettThe most successful investor in history considers himself a rich man, but
p143
sa(dp144
g118
Vhttps://www.cbsnews.com/news/an-unknown-sailor-no-more-pearl-harbor-attack/
p145
sg120
I5
sg121
VAn "unknown sailor" no moreOn Dec. 7, 1941, Boatswain's Mate Joseph George saved the lives of six me
p146
sa(dp147
g118
Vhttps://www.cbsnews.com/news/mcconnell-says-its-impossible-to-guarantee-tax-cut-for-everyone-in-middle-class/
p148
sg120
I44
sg121
VMcConnell says it's "impossible" to guarantee tax cut for middle class"You can't craft any bill that
p149
sa(dp150
g118
Vhttps://www.cbsnews.com/news/gop-tax-bill-year-end-tax-plans/
p151
sg120
I30
sg121
VYear-end tax planning and the GOP tax planTwo strategies for what to do in December 2017 will come i
p152
sa(dp153
g118
Vhttp://rss.cnn.com/~r/rss/cnn_topstories/~3/zZVHBxcw3HM/index.html
p154
sg120
I10
sg121
VThe tax bill and Russia probe came together at a time that will shape midterms and Trump's place in 
p155
sa(dp156
g118
Vhttp://rss.cnn.com/~r/rss/cnn_topstories/~3/YBHHNb9Fh4w/index.html
p157
sg120
I79
sg121
VTrump slams DOJ and FBI in tweet stormPresident Donald Trump spent the weekend firing off tweets tha
p158
sa(dp159
g118
Vhttp://rss.cnn.com/~r/rss/cnn_topstories/~3/s6TSUuDTKzo/index.html
p160
sg120
I6
sg121
VAnalysis: Trump's not worried about Flynn's plea. Nope. Not at allPresident Donald Trump wants you t
p161
sa(dp162
g118
Vhttp://rss.cnn.com/~r/rss/cnn_topstories/~3/Si5FtW1pIOE/index.html
p163
sg120
I70
sg121
VJustice Dept. offers up key witness in probeThe Justice Department has agreed to allow congressional
p164
sa(dp165
g118
Vhttp://rss.cnn.com/~r/rss/cnn_topstories/~3/yuA98mezrnE/feinstein-possible-obstruction-of-justice-case-prokupecz-nr-vosot.cnn
p166
sg120
I0
sg121
VTop Dem: An obstruction of justice case is buildingOn NBC's Meet the Press, Sen. Dianne Feinstein sa
p167
sa(dp168
g118
Vhttp://rss.cnn.com/~r/rss/cnn_topstories/~3/MP3-IaYtXAA/index.html
p169
sg120
I38
sg121
VShe's the ex-Trump official who wrote that Russia threw electionAs the investigations into alleged R
p170
sa(dp171
g118
Vhttp://rss.cnn.com/~r/rss/cnn_topstories/~3/WtuCQhsqzBs/mark-warner-i-believe-comey-over-trump-sotu.cnn
p172
sg120
I0
sg121
VSen.: I believe Comey over Trump's tweetSen. Mark Warner (D-VA) says he believes former FBI Director
p173
sa(dp174
g118
Vhttp://rss.cnn.com/~r/rss/cnn_topstories/~3/XPcF_BNDoGc/index.html
p175
sg120
I0
sg121
V'SNL' takes on Flynn's guilty pleaAlec Baldwin returned to "Saturday Night Live" as Donald Trump -- 
p176
sa(dp177
g118
Vhttp://rss.cnn.com/~r/rss/cnn_topstories/~3/Aw6MfzGQ0S4/index.html
p178
sg120
I37
sg121
VBilly Bush to Trump: Yes, you said that<div class="feedflare">\u000a<a href="http://rss.cnn.com/~ff/rss/c
p179
sa(dp180
g118
Vhttp://rss.cnn.com/~r/rss/cnn_topstories/~3/HGh62PXW8Nk/trump-accepted-hollywood-tape-orig-alee.cnn
p181
sg120
I0
sg121
VWhen Trump apologized for tapeAccording to the New York Times, Donald Trump has questioned the authe
p182
sa(dp183
g118
Vhttp://rss.cnn.com/~r/rss/cnn_topstories/~3/gLpc0iNSPkI/index.html
p184
sg120
I0
sg121
VTrump to hold rally near Moore territoryPresident Donald Trump will hold a campaign-style rally in P
p185
sa(dp186
g118
Vhttp://rss.cnn.com/~r/rss/cnn_topstories/~3/Xmfpu4fPjjo/index.html
p187
sg120
I64
sg121
VMcConnell: 'Let the people of Alabama make the call' on MooreSenate Majority Leader Mitch McConnell 
p188
sa(dp189
g118
Vhttp://rss.cnn.com/~r/rss/cnn_topstories/~3/YdYF3VHqj2E/mitch-mcconnell-i-believe-moore-accuser-sot.wave
p190
sg120
I0
sg121
VMcConnell has said this about MooreSenate Majority Leader Mitch McConnell tells reporters he believe
p191
sa(dp192
g118
Vhttp://rss.cnn.com/~r/rss/cnn_topstories/~3/IdPS-VMmPUI/index.html
p193
sg120
I54
sg121
VOpinion: Can Trump's presidency survive?President Donald Trump is running a dual-track presidency. T
p194
sa(dp195
g118
Vhttp://rss.cnn.com/~r/rss/cnn_topstories/~3/0DlC90rBM8s/mike-pompeo-trump-tweets-help-us-sot.cnn
p196
sg120
I0
sg121
VCIA director: Trump's tweets help usCIA Director Mike Pompeo said Saturday that President Donald Tru
p197
sa(dp198
g118
Vhttp://rss.cnn.com/~r/rss/cnn_topstories/~3/db2sE2Xyjy8/index.html
p199
sg120
I65
sg121
VHow the different tax bills would affect youThe tax overhaul bills passed by the Senate and House wo
p200
sa(dp201
g118
Vhttp://rss.cnn.com/~r/rss/cnn_topstories/~3/UxVF3woKV0k/index.html
p202
sg120
I34
sg121
VWhy Wall Street is euphoric over tax plan<div class="feedflare">\u000a<a href="http://rss.cnn.com/~ff/rss
p203
sa(dp204
g118
Vhttp://rss.cnn.com/~r/rss/cnn_topstories/~3/MraeRYTjXBQ/index.html
p205
sg120
I67
sg121
VKennedy Center Honors goes on without Trump<div class="feedflare">\u000a<a href="http://rss.cnn.com/~ff/r
p206
sa(dp207
g118
Vhttp://rss.cnn.com/~r/rss/cnn_topstories/~3/b6J6JkBBI2M/index.html
p208
sg120
I80
sg121
VAirline: Crew saw North Korean missile from planeThe crew of a Cathay Pacific flight from San Franci
p209
sa(dp210
g118
Vhttp://rss.cnn.com/~r/rss/cnn_topstories/~3/3NkRLBenHjA/index.html
p211
sg120
I18
sg121
VCVS buys Aetna in huge deal that could change health careCVS is buying health insurance giant Aetna,
p212
sa(dp213
S'url'
p214
Vhttp://rss.cnn.com/~r/rss/cnn_topstories/~3/tzriPk3aKL0/index.html
p215
sS'cluster_id'
p216
I61
sS'summary'
p217
VWomen will host CBS and NBC morning shows this weekTwo network news morning shows, two all-women lin
p218
sa(dp219
S'url'
p220
Vhttp://rss.cnn.com/~r/rss/cnn_topstories/~3/Ksjv0PnHn4U/index.html
p221
sS'cluster_id'
p222
I78
sS'summary'
p223
VHospital: Baby is first to be born in US after uterus transplantA baby born at a Texas hospital is t
p224
sa(dp225
g220
Vhttp://rss.cnn.com/~r/rss/cnn_topstories/~3/1uhxvB4QzsE/mark-warner-gop-tax-vote-worst-day-in-senate-sotu-sot.cnn
p226
sg222
I0
sg223
VSen.: This was my worst day on the jobSen. Mark Warner (D-VA) said the late night tax vote was his s
p227
sa(dp228
S'url'
p229
Vhttp://rss.cnn.com/~r/rss/cnn_topstories/~3/fnySxZ0XsO8/index.html
p230
sS'cluster_id'
p231
I74
sS'summary'
p232
VOpinion: Recognizing Jerusalem as Israel's capital is a dangerous gambitHaving worked at the State D
p233
sa(dp234
g229
Vhttp://rss.cnn.com/~r/rss/cnn_topstories/~3/R6S004KsmWg/index.html
p235
sg231
I21
sg232
VEx-officer to be sentenced in killing of unarmed black manThe Scott family found strength in prayer 
p236
sa(dp237
g229
Vhttp://rss.cnn.com/~r/rss/cnn_topstories/~3/3rBJbBbIgVo/index.html
p238
sg231
I0
sg232
VCourt orders Catalan leaders to remain jailedA Spanish judge has ruled the former Vice President of 
p239
sa(dp240
g229
Vhttp://rss.cnn.com/~r/rss/cnn_topstories/~3/u5mU0vAgMDo/index.html
p241
sg231
I26
sg232
V10 arrested in journalist's murder caseMalta's Prime Minister Joseph Muscat announced the arrest of 
p242
sa(dp243
S'url'
p244
Vhttp://rss.cnn.com/~r/rss/cnn_topstories/~3/g8FW03x4XJc/index.html
p245
sS'cluster_id'
p246
I0
sS'summary'
p247
V5 things for Monday: Tax overhaul, Trump's tweets, CVS and AetnaMissed the super moon? That's why we
p248
sa(dp249
g244
Vhttp://rss.cnn.com/~r/rss/cnn_topstories/~3/0Xu_S7NQPR0/2747398-tiger-woods-enters-new-era-of-optimism-after-strong-play-at-hero-world-challenge
p250
sg246
I0
sg247
VTiger Woods enters new era of optimism after strong play<div class="feedflare">\u000a<a href="http://rss.
p251
sa(dp252
g244
Vhttp://rss.cnn.com/~r/rss/cnn_topstories/~3/YsMeZOh8qIM/index.html
p253
sg246
I62
sg247
VCanada could make billions from legal potCanada faces one last hurdle to becoming the first G7 natio
p254
sa(dp255
g244
Vhttp://rss.cnn.com/~r/rss/cnn_topstories/~3/X9aRYwZHVco/2747231-south-carolina-st-player-receives-cpr-after-collapsing-on-sideline-vs-nc-state
p256
sg246
I0
sg247
VPlayer collapses on court and is revived by CPR<div class="feedflare">\u000a<a href="http://rss.cnn.com/~
p257
sa(dp258
g244
Vhttp://rss.cnn.com/~r/rss/cnn_topstories/~3/WJ_6TFAGFlY/australia-parliament-proposal-seg-nr.cnn
p259
sg246
I0
sg247
VSurprise proposal on Parliament floorA member of the Australian parliament surprised his partner whe
p260
sa(dp261
g244
Vhttp://rss.cnn.com/~r/rss/cnn_topstories/~3/Z7mXDT-_MXI/jay-z-beyonce-cheating-rumors-t-magazine-intv-bts.hln
p262
sg246
I0
sg247
VJay-Z opens up about cheating on BeyoncHip-hop star Jay-Z opens up during an interview for The New Y
p263
sa(dp264
g244
Vhttp://rss.cnn.com/~r/rss/cnn_topstories/~3/2re0mIy1I54/index.html
p265
sg246
I42
sg247
V75 days after Maria, this is life in St. CroixAs the islands' residents negotiate their daily lives,
p266
sa(dp267
g244
Vhttp://rss.cnn.com/~r/rss/cnn_topstories/~3/9R6pQ0nvjhc/2747186-former-cowboy-greg-hardy-picks-up-second-mma-victory-by-first-round-tko
p268
sg246
I0
sg247
VEx-NFL star wins first MMA fight<div class="feedflare">\u000a<a href="http://rss.cnn.com/~ff/rss/cnn_tops
p269
sa(dp270
S'url'
p271
Vhttp://rss.cnn.com/~r/rss/cnn_topstories/~3/Oc0JYaikOxA/index.html
p272
sS'cluster_id'
p273
I14
sS'summary'
p274
VTattoo leaves doctors debating man's fatePicture this: A man is admitted to the hospital, unconsciou
p275
sa(dp276
g271
Vhttp://rss.cnn.com/~r/rss/cnn_topstories/~3/xqWDCj_FdSM/tom-hanks-talks-politics-with-axelrod-nr-sot.cnn
p277
sg273
I0
sg274
VTom Hanks grades Trump's performanceActor Tom Hanks sits down with CNN Senior Political Commentator 
p278
sa(dp279
g271
Vhttp://rss.cnn.com/~r/rss/cnn_topstories/~3/S0oEqBesXRw/index.html
p280
sg273
I3
sg274
VNeo-Nazi site founder calls 'troll storm' protected speechThe founder of a popular neo-Nazi website 
p281
sa(dp282
g271
Vhttp://rss.cnn.com/~r/rss/cnn_topstories/~3/GIFiSLOQ8qc/godaddy-shuts-down-daily-stormer-orig-vstop.cnn
p283
sg273
I0
sg274
VGoDaddy boots neo-Nazi websiteInternet domain host GoDaddy told Daily Stormer to find another provid
p284
sa(dp285
g271
Vhttp://rss.cnn.com/~r/rss/cnn_topstories/~3/5JvQ7pasRu0/index.html
p286
sg273
I63
sg274
VHow Montana mom became target of neo-NazisOnce the calls began, they did not stop. Swiping to declin
p287
sa(dp288
g271
Vhttp://rss.cnn.com/~r/rss/cnn_topstories/~3/dGo-DGFhpHE/where-do-your-first-amendment-rights-end-online-cnntech.cnnmoney
p289
sg273
I0
sg274
VWhere do first amendment rights end online?GoDaddy, Google, and Cloudflare have all cut ties with wh
p290
sa(dp291
g271
Vhttp://rss.cnn.com/~r/rss/cnn_topstories/~3/cHJ7zy4sbOY/index.html
p292
sg273
I49
sg274
VWhat white nationalists heard about CharlottesvilleTwo days apart, President Trump issued two differ
p293
sa(dp294
g271
Vhttp://rss.cnn.com/~r/rss/cnn_topstories/~3/2SEmhPTlC2c/index.html
p295
sg273
I4
sg274
VThe NBA's greatest records<div class="feedflare">\u000a<a href="http://rss.cnn.com/~ff/rss/cnn_topstories
p296
sa(dp297
g271
Vhttp://rss.cnn.com/~r/rss/cnn_topstories/~3/BrVeMVB99zc/index.html
p298
sg273
I47
sg274
VWildest tattoos of the NBA<div class="feedflare">\u000a<a href="http://rss.cnn.com/~ff/rss/cnn_topstories
p299
sa(dp300
g271
Vhttp://rss.cnn.com/~r/rss/cnn_topstories/~3/eFYaPEF99jY/nba-minute-who-is-kevin-durant.cnn
p301
sg273
I0
sg274
VKevin Durant explains messages on his shoes<div class="feedflare">\u000a<a href="http://rss.cnn.com/~ff/r
p302
sa(dp303
g271
Vhttp://rss.cnn.com/~r/rss/cnn_topstories/~3/yaWCdFHA4hU/nba-minute-nikes-nba-gear.cnn
p304
sg273
I0
sg274
VNew NBA jerseys have electronic chips<div class="feedflare">\u000a<a href="http://rss.cnn.com/~ff/rss/cnn
p305
sa(dp306
g271
Vhttp://rss.cnn.com/~r/rss/cnn_topstories/~3/oyqJRir9SSE/index.html
p307
sg273
I0
sg274
VShaker movement shaped homes around the worldAdmittedly, there was more to the United Society of Bel
p308
sa(dp309
g271
Vhttp://rss.cnn.com/~r/rss/cnn_topstories/~3/a5LX64YUeZU/index.html
p310
sg273
I32
sg274
VFamous logos remade to use less inkCould big brands save millions of dollars a year and help preserv
p311
sa(dp312
g271
Vhttp://rss.cnn.com/~r/rss/cnn_topstories/~3/TDMTP4TD_X4/instagram-weight-loss-journey-morgan-bartley-newday-dnt-gupta.cnn
p313
sg273
I0
sg274
VShe lost 115 pounds while Instagram watchedWatch how Morgan Bartley's weight loss journey inspired m
p314
sa(dp315
g271
Vhttp://rss.cnn.com/~r/rss/cnn_topstories/~3/_aQdXGqoDhA/index.html
p316
sg273
I17
sg274
V20 airplanes every aviation buff should tryWe're flying more than ever.<div class="feedflare">\u000a<a hr
p317
sa(dp318
g271
Vhttp://rss.cnn.com/~r/rss/cnn_topstories/~3/vteOie_r8wk/index.html
p319
sg273
I0
sg274
VElectric planes: European firms target test flight in 2020<div class="feedflare">\u000a<a href="http://rs
p320
sa(dp321
S'url'
p322
Vhttp://rss.cnn.com/~r/rss/cnn_topstories/~3/Y2gMO4EfZvw/index.html
p323
sS'cluster_id'
p324
I31
sS'summary'
p325
VAmazon's wish lists change how we donate<div class="feedflare">\u000a<a href="http://rss.cnn.com/~ff/rss/
p326
sa(dp327
g322
Vhttp://rss.cnn.com/~r/rss/cnn_topstories/~3/Z2Mucf9u0xk/index.html
p328
sg324
I77
sg325
VApple files for yet another flip phone patent<div class="feedflare">\u000a<a href="http://rss.cnn.com/~ff
p329
sa(dp330
g322
Vhttp://rss.cnn.com/~r/rss/cnn_topstories/~3/AKW2kwo_ts8/index.html
p331
sg324
I48
sg325
VNo matter what Flynn says, the Trump family won't go to jailWhen Michael Flynn walked into a federal
p332
sa(dp333
g322
Vhttp://rss.cnn.com/~r/rss/cnn_topstories/~3/32dfC6ndz2Y/index.html
p334
sg324
I56
sg325
VWhy Mueller banished top agent to FBI 'Siberia'Yesterday, CNN reported that over the summer special 
p335
sa(dp336
g322
Vhttp://rss.cnn.com/~r/rss/cnn_topstories/~3/eppqvKcDk00/index.html
p337
sg324
I51
sg325
VJimmy Kimmel vs. Roy Moore? Spare usLet's get one thing straight, Jimmy Kimmel and Roy Moore: The la
p338
sa(dp339
g322
Vhttp://rss.cnn.com/~r/rss/cnn_topstories/~3/qjfqdOEmDlA/index.html
p340
sg324
I23
sg325
VWomen enable men like Matt Lauer<div class="feedflare">\u000a<a href="http://rss.cnn.com/~ff/rss/cnn_tops
p341
sa(dp342
g322
Vhttp://rss.cnn.com/~r/rss/cnn_topstories/~3/haB6UAKWItE/index.html
p343
sg324
I22
sg325
VA war with North Korea would be hell"War is hell."<div class="feedflare">\u000a<a href="http://rss.cnn.co
p344
sa(dp345
g322
Vhttp://rss.cnn.com/~r/rss/cnn_topstories/~3/U334IIYLiRQ/
p346
sg324
I66
sg325
VPay off your house with this insane trick<div class="feedflare">\u000a<a href="http://rss.cnn.com/~ff/rss
p347
sa(dp348
g322
Vhttp://rss.cnn.com/~r/rss/cnn_topstories/~3/221J0APYm2Y/ways-to-treat-a-failing-aortic-valve
p349
sg324
I0
sg325
VWays to treat a failing aortic valve<div class="feedflare">\u000a<a href="http://rss.cnn.com/~ff/rss/cnn_
p350
sa(dp351
g322
Vhttp://rss.cnn.com/~r/rss/cnn_topstories/~3/CyMbXu0e1K8/pay-0-interest-until-2019
p352
sg324
I2
sg325
V3 cards charging 0% interest until 2019<div class="feedflare">\u000a<a href="http://rss.cnn.com/~ff/rss/c
p353
sa(dp354
g322
Vhttp://rss.cnn.com/~r/rss/cnn_topstories/~3/ehCaWlo7WSY/jared-kushner-personal-saban-forum-bts.cnn
p355
sg324
I0
sg325
VJared Kushner gets personalJared Kushner discusses his personal life and work in the White House at 
p356
sa(dp357
g322
Vhttp://rss.cnn.com/~r/rss/cnn_topstories/~3/ScgsUtvUGZs/index.html
p358
sg324
I45
sg325
VMcMaster: Potential for war with North Korea 'increasing every day'White House national security adv
p359
sa(dp360
g322
Vhttp://rss.cnn.com/~r/rss/cnn_topstories/~3/eZTbjo-I5dY/index.html
p361
sg324
I61
sg325
VTom Hanks: Trump's attacks on press are concerningReflecting on the first year of Donald Trump's pre
p362
sa(dp363
g322
Vhttp://rss.cnn.com/~r/rss/cnn_topstories/~3/BBJte9XcF8Q/index.html
p364
sg324
I55
sg325
VAfter Flynn plea, Comey goes biblicalShortly after former Trump national security adviser Michael Fl
p365
sa(dp366
g322
Vhttp://rss.cnn.com/~r/rss/cnn_topstories/~3/paOjwgRQXQE/index.html
p367
sg324
I19
sg325
VDo you have nomophobia?You may be one of the growing number of Americans (or global citizens) who ha
p368
sa(dp369
g322
Vhttp://rss.cnn.com/~r/rss/cnn_topstories/~3/YJ5-I4ZPqrg/index.html
p370
sg324
I39
sg325
VWhen you love and admire men who behave badlyOn Wednesday morning, NBC's Savannah Guthrie welcomed v
p371
sa(dp372
g322
Vhttp://rss.cnn.com/~r/rss/cnn_topstories/~3/8lp6wzAYBsQ/index.html
p373
sg324
I24
sg325
VDoes chicken soup really help fight a cold?We all know the grandmotherly wisdom of serving chicken s
p374
sa(dp375
g322
Vhttp://rss.cnn.com/~r/rss/cnn_topstories/~3/0t002ZhtzAQ/index.html
p376
sg324
I0
sg325
VWhat's streaming on Netflix, Amazon and Hulu in DecemberTis the season to enjoy streaming.<div class
p377
sa(dp378
g322
Vhttp://www.foxnews.com/us/2017/12/30/cop-taunts-would-be-killer-with-lube-on-way-to-prison-are-going-to-need-lot-this.html
p379
sg324
I35
sg325
VCop taunts would-be killer with lube on way to prison: 'You are going to need a lot of this'A police
p380
sa(dp381
g322
Vhttp://www.foxnews.com/world/2017/12/04/pope-donates-to-help-feed-south-sudans-hungry.html
p382
sg324
I75
sg325
VPope donates to help feed South Sudan's hungryThe leaders of South Sudan's Roman Catholic Church are
p383
sa(dp384
g322
Vhttp://www.foxnews.com/world/2017/12/04/former-egyptian-pm-to-further-study-presidential-run.html
p385
sg324
I15
sg325
VFormer Egyptian PM to 'further study' presidential runA former Egyptian prime minister who had decla
p386
sa(dp387
g322
Vhttp://www.foxnews.com/world/2017/12/04/zimbabwes-president-swears-in-first-post-mugabe-cabinet.html
p388
sg324
I76
sg325
VZimbabwe's president swears in first post-Mugabe cabinetZimbabwe's president has sworn in a new cabi
p389
sa(dp390
g322
Vhttp://www.foxnews.com/world/2017/12/04/cathay-pacific-crew-saw-north-korea-missile-test.html
p391
sg324
I20
sg325
VCathay Pacific crew saw North Korea missile testA second airline has reported seeing North Korea's l
p392
sa(dp393
g322
Vhttp://www.foxnews.com/world/2017/12/04/5-syrians-convicted-in-is-blast-that-led-to-jordan-closure.html
p394
sg324
I68
sg325
V5 Syrians convicted in IS blast that led to Jordan closureJordan's state security court has convicte
p395
sa(dp396
g322
Vhttp://www.foxnews.com/world/2017/12/04/qatars-ruler-to-attend-gulf-meeting-in-kuwait-amid-dispute.html
p397
sg324
I25
sg325
VQatar's ruler to attend Gulf meeting in Kuwait amid disputeQatar's ruling emir will attend a meeting
p398
sa(dp399
g322
Vhttp://www.foxnews.com/world/2017/12/04/prosecutors-ask-court-to-send-russias-ex-minister-to-prison.html
p400
sg324
I7
sg325
VProsecutors ask court to send Russia's ex-minister to prisonRussian prosecutors are asking a court t
p401
sa(dp402
g322
Vhttp://www.foxnews.com/great-outdoors/2017/12/04/tips-for-tagging-big-buck-before-hunting-season-ends.html
p403
sg324
I41
sg325
VTips for tagging a big buck before hunting season endsThese hunters risked eating their tags, sat in
p404
sa(dp405
g322
Vhttp://www.foxnews.com/lifestyle/2017/12/04/are-these-coolest-christmas-trees-in-world.html
p406
sg324
I58
sg325
VAre these the coolest Christmas trees in the world?From Moscow to Melbourne, here are some of the mo
p407
sa(dp408
g322
Vhttp://edition.cnn.com/2011/10/05/us/obit-steve-jobs/index.html
p409
sg324
I8
sg325
VStory highlights Jobs had battled cancer for years Jobs founded Apple when he was 21 He developed th
p410
sa(dp411
g322
Vhttp://cnnmon.ie/2w3M6WA
p412
sg324
I27
sg325
VApple introduces iPhone X Ten years after the launch of the first iPhone, Apple has revealed the iPh
p413
sa(dp414
g322
Vhttp://cnnmon.ie/2w4a3gB
p415
sg324
I57
sg325
VFirst look inside Apple's Steve Jobs Theater One of Steve Jobs' final big visions made its debut Tue
p416
sas.